; Function Attrs: nofree norecurse nosync nounwind memory(read, argmem: readwrite, inaccessiblemem: none) uwtable
define internal void @yuv2yvyu422_X_c(ptr readnone captures(none) %0, ptr noundef readonly captures(none) %1, ptr noundef readonly captures(none) %2, i32 noundef %3, ptr noundef readonly captures(none) %4, ptr noundef readonly captures(none) %5, ptr noundef readonly captures(none) %6, i32 noundef %7, ptr readnone captures(none) %8, ptr noundef writeonly captures(none) %9, i32 noundef %10, i32 %11) #3 {
  %13 = add nsw i32 %10, 1
  %14 = ashr i32 %13, 1
  %15 = icmp sgt i32 %14, 0
  br i1 %15, label %.preheader11.lr.ph, label %yuv2422_X_c_template.exit

.preheader11.lr.ph:                               ; preds = %12
  %16 = icmp sgt i32 %3, 0
  %17 = icmp sgt i32 %7, 0
  %wide.trip.count35 = zext nneg i32 %14 to i64
  %wide.trip.count = zext nneg i32 %3 to i64
  %wide.trip.count30 = zext nneg i32 %7 to i64
  br label %.preheader11

.preheader11:                                     ; preds = %.preheader11.lr.ph, %64
  %indvars.iv32 = phi i64 [ 0, %.preheader11.lr.ph ], [ %indvars.iv.next33, %64 ]
  br i1 %16, label %.lr.ph, label %.preheader

.lr.ph:                                           ; preds = %.preheader11
  %.idx = shl nuw nsw i64 %indvars.iv32, 2
  br label %20

.preheader.loopexit:                              ; preds = %20
  %18 = ashr i32 %30, 19
  %19 = ashr i32 %35, 19
  br label %.preheader

.preheader:                                       ; preds = %.preheader.loopexit, %.preheader11
  %.086.i.lcssa = phi i32 [ 0, %.preheader11 ], [ %18, %.preheader.loopexit ]
  %.084.i.lcssa = phi i32 [ 0, %.preheader11 ], [ %19, %.preheader.loopexit ]
  br i1 %17, label %.lr.ph19, label %._crit_edge

20:                                               ; preds = %.lr.ph, %20
  %indvars.iv = phi i64 [ 0, %.lr.ph ], [ %indvars.iv.next, %20 ]
  %.084.i14 = phi i32 [ 262144, %.lr.ph ], [ %35, %20 ]
  %.086.i13 = phi i32 [ 262144, %.lr.ph ], [ %30, %20 ]
  %21 = getelementptr inbounds nuw ptr, ptr %2, i64 %indvars.iv
  %22 = load ptr, ptr %21, align 8, !tbaa !43
  %23 = getelementptr inbounds nuw i8, ptr %22, i64 %.idx
  %24 = load i16, ptr %23, align 2, !tbaa !39
  %25 = sext i16 %24 to i32
  %26 = getelementptr inbounds nuw i16, ptr %1, i64 %indvars.iv
  %27 = load i16, ptr %26, align 2, !tbaa !39
  %28 = sext i16 %27 to i32
  %29 = mul nsw i32 %28, %25
  %30 = add nsw i32 %29, %.086.i13
  %31 = getelementptr inbounds nuw i8, ptr %23, i64 2
  %32 = load i16, ptr %31, align 2, !tbaa !39
  %33 = sext i16 %32 to i32
  %34 = mul nsw i32 %33, %28
  %35 = add nsw i32 %34, %.084.i14
  %indvars.iv.next = add nuw nsw i64 %indvars.iv, 1
  %exitcond.not = icmp eq i64 %indvars.iv.next, %wide.trip.count
  br i1 %exitcond.not, label %.preheader.loopexit, label %20, !llvm.loop !134

.lr.ph19:                                         ; preds = %.preheader, %.lr.ph19
  %indvars.iv27 = phi i64 [ %indvars.iv.next28, %.lr.ph19 ], [ 0, %.preheader ]
  %.0.i18 = phi i32 [ %52, %.lr.ph19 ], [ 262144, %.preheader ]
  %.082.i17 = phi i32 [ %45, %.lr.ph19 ], [ 262144, %.preheader ]
  %36 = getelementptr inbounds nuw ptr, ptr %5, i64 %indvars.iv27
  %37 = load ptr, ptr %36, align 8, !tbaa !43
  %38 = getelementptr inbounds nuw i16, ptr %37, i64 %indvars.iv32
  %39 = load i16, ptr %38, align 2, !tbaa !39
  %40 = sext i16 %39 to i32
  %41 = getelementptr inbounds nuw i16, ptr %4, i64 %indvars.iv27
  %42 = load i16, ptr %41, align 2, !tbaa !39
  %43 = sext i16 %42 to i32
  %44 = mul nsw i32 %43, %40
  %45 = add nsw i32 %44, %.082.i17
  %46 = getelementptr inbounds nuw ptr, ptr %6, i64 %indvars.iv27
  %47 = load ptr, ptr %46, align 8, !tbaa !43
  %48 = getelementptr inbounds nuw i16, ptr %47, i64 %indvars.iv32
  %49 = load i16, ptr %48, align 2, !tbaa !39
  %50 = sext i16 %49 to i32
  %51 = mul nsw i32 %50, %43
  %52 = add nsw i32 %51, %.0.i18
  %indvars.iv.next28 = add nuw nsw i64 %indvars.iv27, 1
  %exitcond31.not = icmp eq i64 %indvars.iv.next28, %wide.trip.count30
  br i1 %exitcond31.not, label %._crit_edge.loopexit, label %.lr.ph19, !llvm.loop !135

._crit_edge.loopexit:                             ; preds = %.lr.ph19
  %53 = ashr i32 %45, 19
  %54 = ashr i32 %52, 19
  br label %._crit_edge

._crit_edge:                                      ; preds = %._crit_edge.loopexit, %.preheader
  %.082.i.lcssa = phi i32 [ 0, %.preheader ], [ %53, %._crit_edge.loopexit ]
  %.0.i.lcssa = phi i32 [ 0, %.preheader ], [ %54, %._crit_edge.loopexit ]
  %55 = or i32 %.084.i.lcssa, %.086.i.lcssa
  %56 = or i32 %55, %.082.i.lcssa
  %57 = or i32 %56, %.0.i.lcssa
  %58 = and i32 %57, 256
  %.not.i = icmp eq i32 %58, 0
  br i1 %.not.i, label %64, label %59

59:                                               ; preds = %._crit_edge
  %.not.i98.i = icmp ult i32 %.086.i.lcssa, 256
  %isnotneg.i99.i = icmp sgt i32 %.086.i.lcssa, -1
  %60 = sext i1 %isnotneg.i99.i to i32
  %.0.i100.i = select i1 %.not.i98.i, i32 %.086.i.lcssa, i32 %60
  %.not.i95.i = icmp ult i32 %.084.i.lcssa, 256
  %isnotneg.i96.i = icmp sgt i32 %.084.i.lcssa, -1
  %61 = sext i1 %isnotneg.i96.i to i32
  %.0.i97.i = select i1 %.not.i95.i, i32 %.084.i.lcssa, i32 %61
  %.not.i92.i = icmp ult i32 %.082.i.lcssa, 256
  %isnotneg.i93.i = icmp sgt i32 %.082.i.lcssa, -1
  %62 = sext i1 %isnotneg.i93.i to i32
  %.0.i94.i = select i1 %.not.i92.i, i32 %.082.i.lcssa, i32 %62
  %.not.i.i = icmp ult i32 %.0.i.lcssa, 256
  %isnotneg.i.i = icmp sgt i32 %.0.i.lcssa, -1
  %63 = sext i1 %isnotneg.i.i to i32
  %.0.i.i = select i1 %.not.i.i, i32 %.0.i.lcssa, i32 %63
  br label %64

64:                                               ; preds = %59, %._crit_edge
  %.187.i = phi i32 [ %.0.i100.i, %59 ], [ %.086.i.lcssa, %._crit_edge ]
  %.185.i = phi i32 [ %.0.i97.i, %59 ], [ %.084.i.lcssa, %._crit_edge ]
  %.183.i = phi i32 [ %.0.i94.i, %59 ], [ %.082.i.lcssa, %._crit_edge ]
  %.1.i = phi i32 [ %.0.i.i, %59 ], [ %.0.i.lcssa, %._crit_edge ]
  %65 = trunc i32 %.187.i to i8
  %66 = shl nsw i64 %indvars.iv32, 2
  %67 = getelementptr inbounds nuw i8, ptr %9, i64 %66
  store i8 %65, ptr %67, align 1, !tbaa !41
  %68 = trunc i32 %.1.i to i8
  %69 = getelementptr inbounds nuw i8, ptr %67, i64 1
  store i8 %68, ptr %69, align 1, !tbaa !41
  %70 = trunc i32 %.185.i to i8
  %71 = getelementptr inbounds nuw i8, ptr %67, i64 2
  store i8 %70, ptr %71, align 1, !tbaa !41
  %72 = trunc i32 %.183.i to i8
  %73 = getelementptr inbounds nuw i8, ptr %67, i64 3
  store i8 %72, ptr %73, align 1, !tbaa !41
  %indvars.iv.next33 = add nuw nsw i64 %indvars.iv32, 1
  %exitcond36.not = icmp eq i64 %indvars.iv.next33, %wide.trip.count35
  br i1 %exitcond36.not, label %yuv2422_X_c_template.exit, label %.preheader11, !llvm.loop !136

yuv2422_X_c_template.exit:                        ; preds = %64, %12
  ret void
}